target datalayout = "e-m:e-p270:32:32-p271:32:32-p272:64:64-i64:64-i128:128-f80:128-n8:16:32:64-S128"
target triple = "x86_64-pc-linux-gnu"

%"struct.std::atomic" = type { %"struct.std::__atomic_base" }
%"struct.std::__atomic_base" = type { i32 }
%"class.absl::lts_20240722::Status" = type { i64 }
%"class.std::__cxx11::basic_string" = type { %"struct.std::__cxx11::basic_string<char>::_Alloc_hider", i64, %union.anon }
%"struct.std::__cxx11::basic_string<char>::_Alloc_hider" = type { ptr }
%union.anon = type { i64, [8 x i8] }
%"class.absl::lts_20240722::status_internal::StatusRep" = type { %"struct.std::atomic", i32, %"class.std::__cxx11::basic_string", %"class.std::unique_ptr.34" }
%"class.std::unique_ptr.34" = type { %"struct.std::__uniq_ptr_data.35" }
%"struct.std::__uniq_ptr_data.35" = type { %"class.std::__uniq_ptr_impl.36" }
%"class.std::__uniq_ptr_impl.36" = type { %"class.std::tuple.37" }
%"class.std::tuple.37" = type { %"struct.std::_Tuple_impl.38" }
%"struct.std::_Tuple_impl.38" = type { %"struct.std::_Head_base.41" }
%"struct.std::_Head_base.41" = type { ptr }

; Function Attrs: alwaysinline mustprogress nounwind uwtable
define linkonce_odr noundef i32 @_ZNSt13__atomic_baseIiE9fetch_addEiSt12memory_order(ptr noundef nonnull align 4 dereferenceable(4) %0, i32 noundef %1, i32 noundef %2) #15 comdat align 2 {
  %4 = alloca ptr, align 8
  %5 = alloca i32, align 4
  %6 = alloca i32, align 4
  %7 = alloca i32, align 4
  %8 = alloca i32, align 4
  store ptr %0, ptr %4, align 8, !tbaa !104
  store i32 %1, ptr %5, align 4, !tbaa !3
  store i32 %2, ptr %6, align 4, !tbaa !90
  %9 = load ptr, ptr %4, align 8
  %10 = getelementptr inbounds nuw %"struct.std::__atomic_base", ptr %9, i32 0, i32 0
  %11 = load i32, ptr %6, align 4, !tbaa !90
  %12 = load i32, ptr %5, align 4, !tbaa !3
  store i32 %12, ptr %7, align 4, !tbaa !3
  switch i32 %11, label %13 [
    i32 1, label %16
    i32 2, label %16
    i32 3, label %19
    i32 4, label %22
    i32 5, label %25
  ]

13:                                               ; preds = %3
  %14 = load i32, ptr %7, align 4
  %15 = atomicrmw add ptr %10, i32 %14 monotonic, align 4
  store i32 %15, ptr %8, align 4
  br label %28

16:                                               ; preds = %3, %3
  %17 = load i32, ptr %7, align 4
  %18 = atomicrmw add ptr %10, i32 %17 acquire, align 4
  store i32 %18, ptr %8, align 4
  br label %28

19:                                               ; preds = %3
  %20 = load i32, ptr %7, align 4
  %21 = atomicrmw add ptr %10, i32 %20 release, align 4
  store i32 %21, ptr %8, align 4
  br label %28

22:                                               ; preds = %3
  %23 = load i32, ptr %7, align 4
  %24 = atomicrmw add ptr %10, i32 %23 acq_rel, align 4
  store i32 %24, ptr %8, align 4
  br label %28

25:                                               ; preds = %3
  %26 = load i32, ptr %7, align 4
  %27 = atomicrmw add ptr %10, i32 %26 seq_cst, align 4
  store i32 %27, ptr %8, align 4
  br label %28

28:                                               ; preds = %25, %22, %19, %16, %13
  %29 = load i32, ptr %8, align 4, !tbaa !3
  ret i32 %29
}

; Function Attrs: mustprogress nounwind uwtable
define linkonce_odr void @_ZNK4absl12lts_2024072215status_internal9StatusRep3RefEv(ptr noundef nonnull align 8 dereferenceable(48) %0) #6 comdat align 2 {
  %2 = alloca ptr, align 8
  store ptr %0, ptr %2, align 8, !tbaa !167
  %3 = load ptr, ptr %2, align 8
  %4 = getelementptr inbounds nuw %"class.absl::lts_20240722::status_internal::StatusRep", ptr %3, i32 0, i32 0
  %5 = call noundef i32 @_ZNSt13__atomic_baseIiE9fetch_addEiSt12memory_order(ptr noundef nonnull align 4 dereferenceable(4) %4, i32 noundef 1, i32 noundef 0) #3
  ret void
}

; Function Attrs: inlinehint mustprogress nounwind uwtable
define linkonce_odr noundef ptr @_ZN4absl12lts_202407226Status12RepToPointerEm(i64 noundef %0) #8 comdat align 2 {
  %2 = alloca i64, align 8
  store i64 %0, ptr %2, align 8, !tbaa !36
  %3 = load i64, ptr %2, align 8, !tbaa !36
  %4 = inttoptr i64 %3 to ptr
  ret ptr %4
}

; Function Attrs: mustprogress nounwind uwtable
define linkonce_odr noundef zeroext i1 @_ZN4absl12lts_202407226Status9IsInlinedEm(i64 noundef %0) #6 comdat align 2 {
  %2 = alloca i64, align 8
  store i64 %0, ptr %2, align 8, !tbaa !36
  %3 = load i64, ptr %2, align 8, !tbaa !36
  %4 = and i64 %3, 1
  %5 = icmp ne i64 %4, 0
  ret i1 %5
}

; Function Attrs: inlinehint mustprogress uwtable
define linkonce_odr void @_ZN4absl12lts_202407226Status3RefEm(i64 noundef %0) #13 comdat align 2 {
  %2 = alloca i64, align 8
  store i64 %0, ptr %2, align 8, !tbaa !36
  %3 = load i64, ptr %2, align 8, !tbaa !36
  %4 = call noundef zeroext i1 @_ZN4absl12lts_202407226Status9IsInlinedEm(i64 noundef %3)
  br i1 %4, label %8, label %5

5:                                                ; preds = %1
  %6 = load i64, ptr %2, align 8, !tbaa !36
  %7 = call noundef ptr @_ZN4absl12lts_202407226Status12RepToPointerEm(i64 noundef %6)
  call void @_ZNK4absl12lts_2024072215status_internal9StatusRep3RefEv(ptr noundef nonnull align 8 dereferenceable(48) %7)
  br label %8

8:                                                ; preds = %5, %1
  ret void
}

; Function Attrs: mustprogress nounwind uwtable
define linkonce_odr void @_ZN4absl12lts_202407226StatusC2Em(ptr noundef nonnull align 8 dereferenceable(8) %0, i64 noundef %1) unnamed_addr #6 comdat align 2 {
  %3 = alloca ptr, align 8
  %4 = alloca i64, align 8
  store ptr %0, ptr %3, align 8, !tbaa !54
  store i64 %1, ptr %4, align 8, !tbaa !36
  %5 = load ptr, ptr %3, align 8
  %6 = getelementptr inbounds nuw %"class.absl::lts_20240722::Status", ptr %5, i32 0, i32 0
  %7 = load i64, ptr %4, align 8, !tbaa !36
  store i64 %7, ptr %6, align 8, !tbaa !56
  ret void
}

; Function Attrs: inlinehint mustprogress uwtable
define linkonce_odr void @_ZN4absl12lts_202407226StatusC2ERKS1_(ptr noundef nonnull align 8 dereferenceable(8) %0, ptr noundef nonnull align 8 dereferenceable(8) %1) unnamed_addr #13 comdat align 2 personality ptr @__gxx_personality_v0 {
  %3 = alloca ptr, align 8
  %4 = alloca ptr, align 8
  %5 = alloca ptr, align 8
  %6 = alloca i32, align 4
  store ptr %0, ptr %3, align 8, !tbaa !54
  store ptr %1, ptr %4, align 8, !tbaa !54
  %7 = load ptr, ptr %3, align 8
  %8 = load ptr, ptr %4, align 8, !tbaa !54
  %9 = getelementptr inbounds nuw %"class.absl::lts_20240722::Status", ptr %8, i32 0, i32 0
  %10 = load i64, ptr %9, align 8, !tbaa !56
  call void @_ZN4absl12lts_202407226StatusC2Em(ptr noundef nonnull align 8 dereferenceable(8) %7, i64 noundef %10)
  %11 = getelementptr inbounds nuw %"class.absl::lts_20240722::Status", ptr %7, i32 0, i32 0
  %12 = load i64, ptr %11, align 8, !tbaa !56
  invoke void @_ZN4absl12lts_202407226Status3RefEm(i64 noundef %12)
          to label %13 unwind label %14

13:                                               ; preds = %2
  ret void

14:                                               ; preds = %2
  %15 = landingpad { ptr, i32 }
          cleanup
  %16 = extractvalue { ptr, i32 } %15, 0
  store ptr %16, ptr %5, align 8
  %17 = extractvalue { ptr, i32 } %15, 1
  store i32 %17, ptr %6, align 4
  call void @_ZN4absl12lts_202407226StatusD2Ev(ptr noundef nonnull align 8 dereferenceable(8) %7) #3
  br label %18

18:                                               ; preds = %14
  %19 = load ptr, ptr %5, align 8
  %20 = load i32, ptr %6, align 4
  %21 = insertvalue { ptr, i32 } poison, ptr %19, 0
  %22 = insertvalue { ptr, i32 } %21, i32 %20, 1
  resume { ptr, i32 } %22
}

; Function Attrs: mustprogress uwtable
define noundef zeroext i1 @_Z43grpc_iomgr_add_closure_to_background_pollerP12grpc_closureN4absl12lts_202407226StatusE(ptr noundef %0, ptr noundef %1) #4 personality ptr @__gxx_personality_v0 {
  %3 = alloca ptr, align 8
  %4 = alloca ptr, align 8
  %5 = alloca %"class.absl::lts_20240722::Status", align 8
  %6 = alloca ptr, align 8
  %7 = alloca i32, align 4
  store ptr %0, ptr %3, align 8, !tbaa !53
  store ptr %1, ptr %4, align 8, !tbaa !54
  %8 = load ptr, ptr %3, align 8, !tbaa !53
  call void @_ZN4absl12lts_202407226StatusC2ERKS1_(ptr noundef nonnull align 8 dereferenceable(8) %5, ptr noundef nonnull align 8 dereferenceable(8) %1)
  %9 = invoke noundef zeroext i1 @_Z52grpc_iomgr_platform_add_closure_to_background_pollerP12grpc_closureN4absl12lts_202407226StatusE(ptr noundef %8, ptr noundef %5)
          to label %10 unwind label %11

10:                                               ; preds = %2
  call void @_ZN4absl12lts_202407226StatusD2Ev(ptr noundef nonnull align 8 dereferenceable(8) %5) #3
  ret i1 %9

11:                                               ; preds = %2
  %12 = landingpad { ptr, i32 }
          cleanup
  %13 = extractvalue { ptr, i32 } %12, 0
  store ptr %13, ptr %6, align 8
  %14 = extractvalue { ptr, i32 } %12, 1
  store i32 %14, ptr %7, align 4
  call void @_ZN4absl12lts_202407226StatusD2Ev(ptr noundef nonnull align 8 dereferenceable(8) %5) #3
  br label %15

15:                                               ; preds = %11
  %16 = load ptr, ptr %6, align 8
  %17 = load i32, ptr %7, align 4
  %18 = insertvalue { ptr, i32 } poison, ptr %16, 0
  %19 = insertvalue { ptr, i32 } %18, i32 %17, 1
  resume { ptr, i32 } %19
}